target datalayout = "e-m:e-p270:32:32-p271:32:32-p272:64:64-i64:64-i128:128-f80:128-n8:16:32:64-S128"
target triple = "x86_64-pc-linux-gnu"

%struct.hb_unicode_funcs_t = type { %struct.hb_object_header_t, ptr, %struct.anon, %struct.anon.0, %struct.anon.1 }
%struct.hb_object_header_t = type { %struct.hb_reference_count_t, %struct.hb_atomic_int_t, %struct.hb_atomic_ptr_t }
%struct.hb_reference_count_t = type { %struct.hb_atomic_int_t }
%struct.hb_atomic_int_t = type { i32 }
%struct.hb_atomic_ptr_t = type { ptr }
%struct.anon = type { ptr, ptr, ptr, ptr, ptr, ptr, ptr, ptr }
%struct.anon.0 = type { ptr, ptr, ptr, ptr, ptr, ptr, ptr, ptr }
%struct.anon.1 = type { ptr, ptr, ptr, ptr, ptr, ptr, ptr, ptr }

; Function Attrs: mustprogress uwtable
define linkonce_odr hidden noundef i32 @_ZN18hb_unicode_funcs_t23decompose_compatibilityEjPj(ptr noundef nonnull align 8 dereferenceable(216) %0, i32 noundef %1, ptr noundef %2) #0 comdat align 2 {
  %4 = alloca i32, align 4
  %5 = alloca ptr, align 8
  %6 = alloca i32, align 4
  %7 = alloca ptr, align 8
  %8 = alloca i32, align 4
  store ptr %0, ptr %5, align 8
  store i32 %1, ptr %6, align 4
  store ptr %2, ptr %7, align 8
  %9 = load ptr, ptr %5, align 8
  %10 = getelementptr inbounds %struct.hb_unicode_funcs_t, ptr %9, i32 0, i32 2
  %11 = getelementptr inbounds %struct.anon, ptr %10, i32 0, i32 7
  %12 = load ptr, ptr %11, align 8
  %13 = load i32, ptr %6, align 4
  %14 = load ptr, ptr %7, align 8
  %15 = getelementptr inbounds %struct.hb_unicode_funcs_t, ptr %9, i32 0, i32 3
  %16 = getelementptr inbounds %struct.anon.0, ptr %15, i32 0, i32 7
  %17 = load ptr, ptr %16, align 8
  %18 = call noundef i32 %12(ptr noundef %9, i32 noundef %13, ptr noundef %14, ptr noundef %17)
  store i32 %18, ptr %8, align 4
  %19 = load i32, ptr %8, align 4
  %20 = icmp eq i32 %19, 1
  br i1 %20, label %21, label %30

21:                                               ; preds = %3
  %22 = load i32, ptr %6, align 4
  %23 = load ptr, ptr %7, align 8
  %24 = getelementptr inbounds i32, ptr %23, i64 0
  %25 = load i32, ptr %24, align 4
  %26 = icmp eq i32 %22, %25
  br i1 %26, label %27, label %30

27:                                               ; preds = %21
  %28 = load ptr, ptr %7, align 8
  %29 = getelementptr inbounds i32, ptr %28, i64 0
  store i32 0, ptr %29, align 4
  store i32 0, ptr %4, align 4
  br label %36

30:                                               ; preds = %21, %3
  %31 = load ptr, ptr %7, align 8
  %32 = load i32, ptr %8, align 4
  %33 = zext i32 %32 to i64
  %34 = getelementptr inbounds i32, ptr %31, i64 %33
  store i32 0, ptr %34, align 4
  %35 = load i32, ptr %8, align 4
  store i32 %35, ptr %4, align 4
  br label %36

36:                                               ; preds = %30, %27
  %37 = load i32, ptr %4, align 4
  ret i32 %37
}

; Function Attrs: mustprogress uwtable
define hidden i32 @hb_unicode_decompose_compatibility(ptr noundef %0, i32 noundef %1, ptr noundef %2) #0 {
  %4 = alloca ptr, align 8
  %5 = alloca i32, align 4
  %6 = alloca ptr, align 8
  store ptr %0, ptr %4, align 8
  store i32 %1, ptr %5, align 4
  store ptr %2, ptr %6, align 8
  %7 = load ptr, ptr %4, align 8
  %8 = load i32, ptr %5, align 4
  %9 = load ptr, ptr %6, align 8
  %10 = call noundef i32 @_ZN18hb_unicode_funcs_t23decompose_compatibilityEjPj(ptr noundef nonnull align 8 dereferenceable(216) %7, i32 noundef %8, ptr noundef %9)
  ret i32 %10
}